target datalayout = "e-m:e-p270:32:32-p271:32:32-p272:64:64-i64:64-i128:128-f80:128-n8:16:32:64-S128"
target triple = "x86_64-pc-linux-gnu"

%struct.raxNode = type { i32, [0 x i8] }

@.str = private unnamed_addr constant [16 x i8] c"n->iscompr == 0\00", align 1
@.str.1 = private unnamed_addr constant [6 x i8] c"rax.c\00", align 1

; Function Attrs: nounwind uwtable
define dso_local ptr @raxNewNode(i64 noundef %0, i32 noundef %1) #0 {
  %3 = alloca ptr, align 8
  %4 = alloca i64, align 8
  %5 = alloca i32, align 4
  %6 = alloca i64, align 8
  %7 = alloca ptr, align 8
  %8 = alloca i32, align 4
  store i64 %0, ptr %4, align 8, !tbaa !9
  store i32 %1, ptr %5, align 4, !tbaa !5
  call void @llvm.lifetime.start.p0(i64 8, ptr %6) #13
  %9 = load i64, ptr %4, align 8, !tbaa !9
  %10 = add i64 4, %9
  %11 = load i64, ptr %4, align 8, !tbaa !9
  %12 = add i64 %11, 4
  %13 = urem i64 %12, 8
  %14 = sub i64 8, %13
  %15 = and i64 %14, 7
  %16 = add i64 %10, %15
  %17 = load i64, ptr %4, align 8, !tbaa !9
  %18 = mul i64 8, %17
  %19 = add i64 %16, %18
  store i64 %19, ptr %6, align 8, !tbaa !9
  %20 = load i32, ptr %5, align 4, !tbaa !5
  %21 = icmp ne i32 %20, 0
  br i1 %21, label %22, label %25

22:                                               ; preds = %2
  %23 = load i64, ptr %6, align 8, !tbaa !9
  %24 = add i64 %23, 8
  store i64 %24, ptr %6, align 8, !tbaa !9
  br label %25

25:                                               ; preds = %22, %2
  call void @llvm.lifetime.start.p0(i64 8, ptr %7) #13
  %26 = load i64, ptr %6, align 8, !tbaa !9
  %27 = call noalias ptr @zmalloc(i64 noundef %26) #14
  store ptr %27, ptr %7, align 8, !tbaa !11
  %28 = load ptr, ptr %7, align 8, !tbaa !11
  %29 = icmp eq ptr %28, null
  br i1 %29, label %30, label %31

30:                                               ; preds = %25
  store ptr null, ptr %3, align 8
  store i32 1, ptr %8, align 4
  br label %53

31:                                               ; preds = %25
  %32 = load ptr, ptr %7, align 8, !tbaa !11
  %33 = load i32, ptr %32, align 4
  %34 = and i32 %33, -2
  %35 = or i32 %34, 0
  store i32 %35, ptr %32, align 4
  %36 = load ptr, ptr %7, align 8, !tbaa !11
  %37 = load i32, ptr %36, align 4
  %38 = and i32 %37, -3
  %39 = or i32 %38, 0
  store i32 %39, ptr %36, align 4
  %40 = load ptr, ptr %7, align 8, !tbaa !11
  %41 = load i32, ptr %40, align 4
  %42 = and i32 %41, -5
  %43 = or i32 %42, 0
  store i32 %43, ptr %40, align 4
  %44 = load i64, ptr %4, align 8, !tbaa !9
  %45 = trunc i64 %44 to i32
  %46 = load ptr, ptr %7, align 8, !tbaa !11
  %47 = load i32, ptr %46, align 4
  %48 = and i32 %45, 536870911
  %49 = shl i32 %48, 3
  %50 = and i32 %47, 7
  %51 = or i32 %50, %49
  store i32 %51, ptr %46, align 4
  %52 = load ptr, ptr %7, align 8, !tbaa !11
  store ptr %52, ptr %3, align 8
  store i32 1, ptr %8, align 4
  br label %53

53:                                               ; preds = %31, %30
  call void @llvm.lifetime.end.p0(i64 8, ptr %7) #13
  call void @llvm.lifetime.end.p0(i64 8, ptr %6) #13
  %54 = load ptr, ptr %3, align 8
  ret ptr %54
}

; Function Attrs: nounwind uwtable
define dso_local ptr @raxAddChild(ptr noundef %0, i8 noundef zeroext %1, ptr noundef %2, ptr noundef %3) #0 {
  %5 = alloca ptr, align 8
  %6 = alloca ptr, align 8
  %7 = alloca i8, align 1
  %8 = alloca ptr, align 8
  %9 = alloca ptr, align 8
  %10 = alloca i64, align 8
  %11 = alloca i64, align 8
  %12 = alloca ptr, align 8
  %13 = alloca i32, align 4
  %14 = alloca ptr, align 8
  %15 = alloca i32, align 4
  %16 = alloca ptr, align 8
  %17 = alloca ptr, align 8
  %18 = alloca i64, align 8
  %19 = alloca ptr, align 8
  store ptr %0, ptr %6, align 8, !tbaa !11
  store i8 %1, ptr %7, align 1, !tbaa !17
  store ptr %2, ptr %8, align 8, !tbaa !18
  store ptr %3, ptr %9, align 8, !tbaa !20
  %20 = load ptr, ptr %6, align 8, !tbaa !11
  %21 = load i32, ptr %20, align 4
  %22 = lshr i32 %21, 2
  %23 = and i32 %22, 1
  %24 = icmp eq i32 %23, 0
  %25 = xor i1 %24, true
  %26 = xor i1 %25, true
  %27 = zext i1 %26 to i32
  %28 = sext i32 %27 to i64
  %29 = call i64 @llvm.expect.i64(i64 %28, i64 1)
  %30 = icmp ne i64 %29, 0
  br i1 %30, label %31, label %32

31:                                               ; preds = %4
  br label %34

32:                                               ; preds = %4
  call void @_serverAssert(ptr noundef @.str, ptr noundef @.str.1, i32 noundef 234)
  call void @abort() #16
  unreachable

33:                                               ; No predecessors!
  br label %34

34:                                               ; preds = %33, %31
  call void @llvm.lifetime.start.p0(i64 8, ptr %10) #13
  %35 = load ptr, ptr %6, align 8, !tbaa !11
  %36 = load i32, ptr %35, align 4
  %37 = lshr i32 %36, 3
  %38 = zext i32 %37 to i64
  %39 = add i64 4, %38
  %40 = load ptr, ptr %6, align 8, !tbaa !11
  %41 = load i32, ptr %40, align 4
  %42 = lshr i32 %41, 3
  %43 = add nsw i32 %42, 4
  %44 = sext i32 %43 to i64
  %45 = urem i64 %44, 8
  %46 = sub i64 8, %45
  %47 = and i64 %46, 7
  %48 = add i64 %39, %47
  %49 = load ptr, ptr %6, align 8, !tbaa !11
  %50 = load i32, ptr %49, align 4
  %51 = lshr i32 %50, 2
  %52 = and i32 %51, 1
  %53 = icmp ne i32 %52, 0
  br i1 %53, label %54, label %55

54:                                               ; preds = %34
  br label %61

55:                                               ; preds = %34
  %56 = load ptr, ptr %6, align 8, !tbaa !11
  %57 = load i32, ptr %56, align 4
  %58 = lshr i32 %57, 3
  %59 = zext i32 %58 to i64
  %60 = mul i64 8, %59
  br label %61

61:                                               ; preds = %55, %54
  %62 = phi i64 [ 8, %54 ], [ %60, %55 ]
  %63 = add i64 %48, %62
  %64 = load ptr, ptr %6, align 8, !tbaa !11
  %65 = load i32, ptr %64, align 4
  %66 = and i32 %65, 1
  %67 = icmp ne i32 %66, 0
  br i1 %67, label %68, label %75

68:                                               ; preds = %61
  %69 = load ptr, ptr %6, align 8, !tbaa !11
  %70 = load i32, ptr %69, align 4
  %71 = lshr i32 %70, 1
  %72 = and i32 %71, 1
  %73 = icmp ne i32 %72, 0
  %74 = xor i1 %73, true
  br label %75

75:                                               ; preds = %68, %61
  %76 = phi i1 [ false, %61 ], [ %74, %68 ]
  %77 = zext i1 %76 to i32
  %78 = sext i32 %77 to i64
  %79 = mul i64 %78, 8
  %80 = add i64 %63, %79
  store i64 %80, ptr %10, align 8, !tbaa !9
  %81 = load ptr, ptr %6, align 8, !tbaa !11
  %82 = load i32, ptr %81, align 4
  %83 = lshr i32 %82, 3
  %84 = add i32 %83, 1
  %85 = load i32, ptr %81, align 4
  %86 = and i32 %84, 536870911
  %87 = shl i32 %86, 3
  %88 = and i32 %85, 7
  %89 = or i32 %88, %87
  store i32 %89, ptr %81, align 4
  call void @llvm.lifetime.start.p0(i64 8, ptr %11) #13
  %90 = load ptr, ptr %6, align 8, !tbaa !11
  %91 = load i32, ptr %90, align 4
  %92 = lshr i32 %91, 3
  %93 = zext i32 %92 to i64
  %94 = add i64 4, %93
  %95 = load ptr, ptr %6, align 8, !tbaa !11
  %96 = load i32, ptr %95, align 4
  %97 = lshr i32 %96, 3
  %98 = add nsw i32 %97, 4
  %99 = sext i32 %98 to i64
  %100 = urem i64 %99, 8
  %101 = sub i64 8, %100
  %102 = and i64 %101, 7
  %103 = add i64 %94, %102
  %104 = load ptr, ptr %6, align 8, !tbaa !11
  %105 = load i32, ptr %104, align 4
  %106 = lshr i32 %105, 2
  %107 = and i32 %106, 1
  %108 = icmp ne i32 %107, 0
  br i1 %108, label %109, label %110

109:                                              ; preds = %75
  br label %116

110:                                              ; preds = %75
  %111 = load ptr, ptr %6, align 8, !tbaa !11
  %112 = load i32, ptr %111, align 4
  %113 = lshr i32 %112, 3
  %114 = zext i32 %113 to i64
  %115 = mul i64 8, %114
  br label %116

116:                                              ; preds = %110, %109
  %117 = phi i64 [ 8, %109 ], [ %115, %110 ]
  %118 = add i64 %103, %117
  %119 = load ptr, ptr %6, align 8, !tbaa !11
  %120 = load i32, ptr %119, align 4
  %121 = and i32 %120, 1
  %122 = icmp ne i32 %121, 0
  br i1 %122, label %123, label %130

123:                                              ; preds = %116
  %124 = load ptr, ptr %6, align 8, !tbaa !11
  %125 = load i32, ptr %124, align 4
  %126 = lshr i32 %125, 1
  %127 = and i32 %126, 1
  %128 = icmp ne i32 %127, 0
  %129 = xor i1 %128, true
  br label %130

130:                                              ; preds = %123, %116
  %131 = phi i1 [ false, %116 ], [ %129, %123 ]
  %132 = zext i1 %131 to i32
  %133 = sext i32 %132 to i64
  %134 = mul i64 %133, 8
  %135 = add i64 %118, %134
  store i64 %135, ptr %11, align 8, !tbaa !9
  %136 = load ptr, ptr %6, align 8, !tbaa !11
  %137 = load i32, ptr %136, align 4
  %138 = lshr i32 %137, 3
  %139 = add i32 %138, -1
  %140 = load i32, ptr %136, align 4
  %141 = and i32 %139, 536870911
  %142 = shl i32 %141, 3
  %143 = and i32 %140, 7
  %144 = or i32 %143, %142
  store i32 %144, ptr %136, align 4
  call void @llvm.lifetime.start.p0(i64 8, ptr %12) #13
  %145 = call ptr @raxNewNode(i64 noundef 0, i32 noundef 0)
  store ptr %145, ptr %12, align 8, !tbaa !11
  %146 = load ptr, ptr %12, align 8, !tbaa !11
  %147 = icmp eq ptr %146, null
  br i1 %147, label %148, label %149

148:                                              ; preds = %130
  store ptr null, ptr %5, align 8
  store i32 1, ptr %13, align 4
  br label %328

149:                                              ; preds = %130
  call void @llvm.lifetime.start.p0(i64 8, ptr %14) #13
  %150 = load ptr, ptr %6, align 8, !tbaa !11
  %151 = load i64, ptr %11, align 8, !tbaa !9
  %152 = call ptr @zrealloc(ptr noundef %150, i64 noundef %151) #15
  store ptr %152, ptr %14, align 8, !tbaa !11
  %153 = load ptr, ptr %14, align 8, !tbaa !11
  %154 = icmp eq ptr %153, null
  br i1 %154, label %155, label %157

155:                                              ; preds = %149
  %156 = load ptr, ptr %12, align 8, !tbaa !11
  call void @zfree(ptr noundef %156)
  store ptr null, ptr %5, align 8
  store i32 1, ptr %13, align 4
  br label %327

157:                                              ; preds = %149
  %158 = load ptr, ptr %14, align 8, !tbaa !11
  store ptr %158, ptr %6, align 8, !tbaa !11
  call void @llvm.lifetime.start.p0(i64 4, ptr %15) #13
  store i32 0, ptr %15, align 4, !tbaa !5
  br label %159

159:                                              ; preds = %178, %157
  %160 = load i32, ptr %15, align 4, !tbaa !5
  %161 = load ptr, ptr %6, align 8, !tbaa !11
  %162 = load i32, ptr %161, align 4
  %163 = lshr i32 %162, 3
  %164 = icmp slt i32 %160, %163
  br i1 %164, label %165, label %181

165:                                              ; preds = %159
  %166 = load ptr, ptr %6, align 8, !tbaa !11
  %167 = getelementptr inbounds nuw %struct.raxNode, ptr %166, i32 0, i32 1
  %168 = load i32, ptr %15, align 4, !tbaa !5
  %169 = sext i32 %168 to i64
  %170 = getelementptr inbounds [0 x i8], ptr %167, i64 0, i64 %169
  %171 = load i8, ptr %170, align 1, !tbaa !17
  %172 = zext i8 %171 to i32
  %173 = load i8, ptr %7, align 1, !tbaa !17
  %174 = zext i8 %173 to i32
  %175 = icmp sgt i32 %172, %174
  br i1 %175, label %176, label %177

176:                                              ; preds = %165
  br label %181

177:                                              ; preds = %165
  br label %178

178:                                              ; preds = %177
  %179 = load i32, ptr %15, align 4, !tbaa !5
  %180 = add nsw i32 %179, 1
  store i32 %180, ptr %15, align 4, !tbaa !5
  br label %159, !llvm.loop !22

181:                                              ; preds = %176, %159
  call void @llvm.lifetime.start.p0(i64 8, ptr %16) #13
  call void @llvm.lifetime.start.p0(i64 8, ptr %17) #13
  %182 = load ptr, ptr %6, align 8, !tbaa !11
  %183 = load i32, ptr %182, align 4
  %184 = and i32 %183, 1
  %185 = icmp ne i32 %184, 0
  br i1 %185, label %186, label %203

186:                                              ; preds = %181
  %187 = load ptr, ptr %6, align 8, !tbaa !11
  %188 = load i32, ptr %187, align 4
  %189 = lshr i32 %188, 1
  %190 = and i32 %189, 1
  %191 = icmp ne i32 %190, 0
  br i1 %191, label %203, label %192

192:                                              ; preds = %186
  %193 = load ptr, ptr %6, align 8, !tbaa !11
  %194 = load i64, ptr %10, align 8, !tbaa !9
  %195 = getelementptr inbounds nuw i8, ptr %193, i64 %194
  %196 = getelementptr inbounds i8, ptr %195, i64 -8
  store ptr %196, ptr %16, align 8, !tbaa !24
  %197 = load ptr, ptr %6, align 8, !tbaa !11
  %198 = load i64, ptr %11, align 8, !tbaa !9
  %199 = getelementptr inbounds nuw i8, ptr %197, i64 %198
  %200 = getelementptr inbounds i8, ptr %199, i64 -8
  store ptr %200, ptr %17, align 8, !tbaa !24
  %201 = load ptr, ptr %17, align 8, !tbaa !24
  %202 = load ptr, ptr %16, align 8, !tbaa !24
  call void @llvm.memmove.p0.p0.i64(ptr align 1 %201, ptr align 1 %202, i64 8, i1 false)
  br label %203

203:                                              ; preds = %192, %186, %181
  call void @llvm.lifetime.start.p0(i64 8, ptr %18) #13
  %204 = load i64, ptr %11, align 8, !tbaa !9
  %205 = load i64, ptr %10, align 8, !tbaa !9
  %206 = sub i64 %204, %205
  %207 = sub i64 %206, 8
  store i64 %207, ptr %18, align 8, !tbaa !9
  %208 = load ptr, ptr %6, align 8, !tbaa !11
  %209 = getelementptr inbounds nuw %struct.raxNode, ptr %208, i32 0, i32 1
  %210 = getelementptr inbounds [0 x i8], ptr %209, i64 0, i64 0
  %211 = load ptr, ptr %6, align 8, !tbaa !11
  %212 = load i32, ptr %211, align 4
  %213 = lshr i32 %212, 3
  %214 = sext i32 %213 to i64
  %215 = getelementptr inbounds i8, ptr %210, i64 %214
  %216 = load ptr, ptr %6, align 8, !tbaa !11
  %217 = load i32, ptr %216, align 4
  %218 = lshr i32 %217, 3
  %219 = add nsw i32 %218, 4
  %220 = sext i32 %219 to i64
  %221 = urem i64 %220, 8
  %222 = sub i64 8, %221
  %223 = and i64 %222, 7
  %224 = getelementptr inbounds nuw i8, ptr %215, i64 %223
  %225 = load i32, ptr %15, align 4, !tbaa !5
  %226 = sext i32 %225 to i64
  %227 = mul i64 8, %226
  %228 = getelementptr inbounds nuw i8, ptr %224, i64 %227
  store ptr %228, ptr %16, align 8, !tbaa !24
  %229 = load ptr, ptr %16, align 8, !tbaa !24
  %230 = load i64, ptr %18, align 8, !tbaa !9
  %231 = getelementptr inbounds nuw i8, ptr %229, i64 %230
  %232 = getelementptr inbounds nuw i8, ptr %231, i64 8
  %233 = load ptr, ptr %16, align 8, !tbaa !24
  %234 = load ptr, ptr %6, align 8, !tbaa !11
  %235 = load i32, ptr %234, align 4
  %236 = lshr i32 %235, 3
  %237 = load i32, ptr %15, align 4, !tbaa !5
  %238 = sub nsw i32 %236, %237
  %239 = sext i32 %238 to i64
  %240 = mul i64 8, %239
  call void @llvm.memmove.p0.p0.i64(ptr align 1 %232, ptr align 1 %233, i64 %240, i1 false)
  %241 = load i64, ptr %18, align 8, !tbaa !9
  %242 = icmp ne i64 %241, 0
  br i1 %242, label %243, label %268

243:                                              ; preds = %203
  %244 = load ptr, ptr %6, align 8, !tbaa !11
  %245 = getelementptr inbounds nuw %struct.raxNode, ptr %244, i32 0, i32 1
  %246 = getelementptr inbounds [0 x i8], ptr %245, i64 0, i64 0
  %247 = load ptr, ptr %6, align 8, !tbaa !11
  %248 = load i32, ptr %247, align 4
  %249 = lshr i32 %248, 3
  %250 = sext i32 %249 to i64
  %251 = getelementptr inbounds i8, ptr %246, i64 %250
  %252 = load ptr, ptr %6, align 8, !tbaa !11
  %253 = load i32, ptr %252, align 4
  %254 = lshr i32 %253, 3
  %255 = add nsw i32 %254, 4
  %256 = sext i32 %255 to i64
  %257 = urem i64 %256, 8
  %258 = sub i64 8, %257
  %259 = and i64 %258, 7
  %260 = getelementptr inbounds nuw i8, ptr %251, i64 %259
  store ptr %260, ptr %16, align 8, !tbaa !24
  %261 = load ptr, ptr %16, align 8, !tbaa !24
  %262 = load i64, ptr %18, align 8, !tbaa !9
  %263 = getelementptr inbounds nuw i8, ptr %261, i64 %262
  %264 = load ptr, ptr %16, align 8, !tbaa !24
  %265 = load i32, ptr %15, align 4, !tbaa !5
  %266 = sext i32 %265 to i64
  %267 = mul i64 8, %266
  call void @llvm.memmove.p0.p0.i64(ptr align 1 %263, ptr align 1 %264, i64 %267, i1 false)
  br label %268

268:                                              ; preds = %243, %203
  %269 = load ptr, ptr %6, align 8, !tbaa !11
  %270 = getelementptr inbounds nuw %struct.raxNode, ptr %269, i32 0, i32 1
  %271 = getelementptr inbounds [0 x i8], ptr %270, i64 0, i64 0
  %272 = load i32, ptr %15, align 4, !tbaa !5
  %273 = sext i32 %272 to i64
  %274 = getelementptr inbounds i8, ptr %271, i64 %273
  store ptr %274, ptr %16, align 8, !tbaa !24
  %275 = load ptr, ptr %16, align 8, !tbaa !24
  %276 = getelementptr inbounds i8, ptr %275, i64 1
  %277 = load ptr, ptr %16, align 8, !tbaa !24
  %278 = load ptr, ptr %6, align 8, !tbaa !11
  %279 = load i32, ptr %278, align 4
  %280 = lshr i32 %279, 3
  %281 = load i32, ptr %15, align 4, !tbaa !5
  %282 = sub nsw i32 %280, %281
  %283 = sext i32 %282 to i64
  call void @llvm.memmove.p0.p0.i64(ptr align 1 %276, ptr align 1 %277, i64 %283, i1 false)
  %284 = load i8, ptr %7, align 1, !tbaa !17
  %285 = load ptr, ptr %6, align 8, !tbaa !11
  %286 = getelementptr inbounds nuw %struct.raxNode, ptr %285, i32 0, i32 1
  %287 = load i32, ptr %15, align 4, !tbaa !5
  %288 = sext i32 %287 to i64
  %289 = getelementptr inbounds [0 x i8], ptr %286, i64 0, i64 %288
  store i8 %284, ptr %289, align 1, !tbaa !17
  %290 = load ptr, ptr %6, align 8, !tbaa !11
  %291 = load i32, ptr %290, align 4
  %292 = lshr i32 %291, 3
  %293 = add i32 %292, 1
  %294 = load i32, ptr %290, align 4
  %295 = and i32 %293, 536870911
  %296 = shl i32 %295, 3
  %297 = and i32 %294, 7
  %298 = or i32 %297, %296
  store i32 %298, ptr %290, align 4
  %299 = load ptr, ptr %6, align 8, !tbaa !11
  %300 = getelementptr inbounds nuw %struct.raxNode, ptr %299, i32 0, i32 1
  %301 = getelementptr inbounds [0 x i8], ptr %300, i64 0, i64 0
  %302 = load ptr, ptr %6, align 8, !tbaa !11
  %303 = load i32, ptr %302, align 4
  %304 = lshr i32 %303, 3
  %305 = sext i32 %304 to i64
  %306 = getelementptr inbounds i8, ptr %301, i64 %305
  %307 = load ptr, ptr %6, align 8, !tbaa !11
  %308 = load i32, ptr %307, align 4
  %309 = lshr i32 %308, 3
  %310 = add nsw i32 %309, 4
  %311 = sext i32 %310 to i64
  %312 = urem i64 %311, 8
  %313 = sub i64 8, %312
  %314 = and i64 %313, 7
  %315 = getelementptr inbounds nuw i8, ptr %306, i64 %314
  store ptr %315, ptr %16, align 8, !tbaa !24
  call void @llvm.lifetime.start.p0(i64 8, ptr %19) #13
  %316 = load ptr, ptr %16, align 8, !tbaa !24
  %317 = load i32, ptr %15, align 4, !tbaa !5
  %318 = sext i32 %317 to i64
  %319 = mul i64 8, %318
  %320 = getelementptr inbounds nuw i8, ptr %316, i64 %319
  store ptr %320, ptr %19, align 8, !tbaa !18
  %321 = load ptr, ptr %19, align 8, !tbaa !18
  call void @llvm.memcpy.p0.p0.i64(ptr align 8 %321, ptr align 8 %12, i64 8, i1 false)
  %322 = load ptr, ptr %12, align 8, !tbaa !11
  %323 = load ptr, ptr %8, align 8, !tbaa !18
  store ptr %322, ptr %323, align 8, !tbaa !11
  %324 = load ptr, ptr %19, align 8, !tbaa !18
  %325 = load ptr, ptr %9, align 8, !tbaa !20
  store ptr %324, ptr %325, align 8, !tbaa !18
  %326 = load ptr, ptr %6, align 8, !tbaa !11
  store ptr %326, ptr %5, align 8
  store i32 1, ptr %13, align 4
  call void @llvm.lifetime.end.p0(i64 8, ptr %19) #13
  call void @llvm.lifetime.end.p0(i64 8, ptr %18) #13
  call void @llvm.lifetime.end.p0(i64 8, ptr %17) #13
  call void @llvm.lifetime.end.p0(i64 8, ptr %16) #13
  call void @llvm.lifetime.end.p0(i64 4, ptr %15) #13
  br label %327

327:                                              ; preds = %268, %155
  call void @llvm.lifetime.end.p0(i64 8, ptr %14) #13
  br label %328

328:                                              ; preds = %327, %148
  call void @llvm.lifetime.end.p0(i64 8, ptr %12) #13
  call void @llvm.lifetime.end.p0(i64 8, ptr %11) #13
  call void @llvm.lifetime.end.p0(i64 8, ptr %10) #13
  %329 = load ptr, ptr %5, align 8
  ret ptr %329
}