; Function Attrs: nounwind uwtable
define dso_local ptr @raxAddChild(ptr noundef %0, i8 noundef zeroext %1, ptr noundef writeonly captures(none) %2, ptr noundef writeonly captures(none) %3) local_unnamed_addr #1 {
  %5 = load i32, ptr %0, align 4
  %6 = and i32 %5, 4
  %7 = icmp eq i32 %6, 0
  br i1 %7, label %9, label %8, !prof !14

8:                                                ; preds = %4
  tail call void @_serverAssert(ptr noundef nonnull @.str, ptr noundef nonnull @.str.1, i32 noundef 234) #26
  tail call void @abort() #28
  unreachable

9:                                                ; preds = %4
  %10 = lshr i32 %5, 3
  %11 = zext nneg i32 %10 to i64
  %12 = add nuw nsw i64 %11, 4
  %13 = xor i32 %10, 3
  %.neg = add nuw nsw i32 %13, 1
  %14 = and i32 %.neg, 7
  %15 = zext nneg i32 %14 to i64
  %16 = shl nuw nsw i64 %11, 3
  %17 = and i32 %5, 1
  %.not = icmp eq i32 %17, 0
  %18 = shl i32 %5, 2
  %19 = and i32 %18, 8
  %20 = xor i32 %19, 8
  %narrow = select i1 %.not, i32 0, i32 %20
  %21 = zext nneg i32 %narrow to i64
  %22 = add nuw nsw i64 %12, %16
  %23 = add nuw nsw i64 %22, %15
  %24 = add nuw nsw i64 %23, %21
  %25 = add i32 %5, 8
  %26 = lshr i32 %25, 3
  %27 = zext nneg i32 %26 to i64
  %28 = add nuw nsw i64 %27, 4
  %29 = xor i32 %26, 3
  %.neg80 = add nuw nsw i32 %29, 1
  %30 = and i32 %.neg80, 7
  %31 = zext nneg i32 %30 to i64
  %32 = shl nuw nsw i64 %27, 3
  %33 = add nuw nsw i64 %28, %32
  %34 = add nuw nsw i64 %33, %21
  %35 = add nuw nsw i64 %34, %31
  %36 = tail call noalias dereferenceable_or_null(8) ptr @zmalloc(i64 noundef 8) #25
  %37 = icmp eq ptr %36, null
  br i1 %37, label %raxNewNode.exit.thread, label %38

38:                                               ; preds = %9
  store i32 0, ptr %36, align 4
  %39 = tail call ptr @zrealloc(ptr noundef nonnull %0, i64 noundef %35) #27
  %40 = icmp eq ptr %39, null
  br i1 %40, label %44, label %.preheader

.preheader:                                       ; preds = %38
  %41 = getelementptr inbounds nuw i8, ptr %39, i64 4
  %42 = load i32, ptr %39, align 4
  %43 = lshr i32 %42, 3
  %.not96 = icmp ult i32 %42, 8
  br i1 %.not96, label %._crit_edge, label %.lr.ph.preheader

.lr.ph.preheader:                                 ; preds = %.preheader
  %wide.trip.count = zext nneg i32 %43 to i64
  br label %.lr.ph

44:                                               ; preds = %38
  tail call void @zfree(ptr noundef nonnull %36) #26
  br label %raxNewNode.exit.thread

.lr.ph:                                           ; preds = %.lr.ph.preheader, %48
  %indvars.iv = phi i64 [ 0, %.lr.ph.preheader ], [ %indvars.iv.next, %48 ]
  %45 = getelementptr inbounds nuw [0 x i8], ptr %41, i64 0, i64 %indvars.iv
  %46 = load i8, ptr %45, align 1, !tbaa !15
  %47 = icmp ugt i8 %46, %1
  br i1 %47, label %._crit_edge.loopexit.split.loop.exit, label %48

48:                                               ; preds = %.lr.ph
  %indvars.iv.next = add nuw nsw i64 %indvars.iv, 1
  %exitcond.not = icmp eq i64 %indvars.iv.next, %wide.trip.count
  br i1 %exitcond.not, label %._crit_edge, label %.lr.ph, !llvm.loop !16

._crit_edge.loopexit.split.loop.exit:             ; preds = %.lr.ph
  %49 = trunc nuw nsw i64 %indvars.iv to i32
  br label %._crit_edge

._crit_edge:                                      ; preds = %48, %._crit_edge.loopexit.split.loop.exit, %.preheader
  %.075.lcssa = phi i32 [ 0, %.preheader ], [ %49, %._crit_edge.loopexit.split.loop.exit ], [ %43, %48 ]
  %50 = and i32 %42, 3
  %or.cond = icmp eq i32 %50, 1
  br i1 %or.cond, label %51, label %57

51:                                               ; preds = %._crit_edge
  %52 = getelementptr inbounds nuw i8, ptr %39, i64 %24
  %53 = getelementptr inbounds i8, ptr %52, i64 -8
  %54 = getelementptr inbounds nuw i8, ptr %39, i64 %35
  %55 = getelementptr inbounds i8, ptr %54, i64 -8
  %56 = load i64, ptr %53, align 1
  store i64 %56, ptr %55, align 1
  %.pre = load i32, ptr %39, align 4
  %.pre98 = lshr i32 %.pre, 3
  br label %57

57:                                               ; preds = %51, %._crit_edge
  %.pre-phi = phi i32 [ %.pre98, %51 ], [ %43, %._crit_edge ]
  %58 = sub nsw i64 %35, %24
  %59 = add nsw i64 %58, -8
  %60 = zext nneg i32 %.pre-phi to i64
  %61 = getelementptr inbounds nuw i8, ptr %41, i64 %60
  %62 = xor i32 %.pre-phi, 3
  %.neg86 = add nuw nsw i32 %62, 1
  %63 = and i32 %.neg86, 7
  %64 = zext nneg i32 %63 to i64
  %65 = getelementptr inbounds nuw i8, ptr %61, i64 %64
  %66 = zext nneg i32 %.075.lcssa to i64
  %67 = shl nuw nsw i64 %66, 3
  %68 = getelementptr inbounds nuw i8, ptr %65, i64 %67
  %69 = getelementptr inbounds nuw i8, ptr %68, i64 %59
  %70 = getelementptr inbounds nuw i8, ptr %69, i64 8
  %71 = sub nsw i32 %.pre-phi, %.075.lcssa
  %72 = sext i32 %71 to i64
  %73 = shl nsw i64 %72, 3
  tail call void @llvm.memmove.p0.p0.i64(ptr nonnull align 1 %70, ptr nonnull align 1 %68, i64 %73, i1 false)
  %.not87 = icmp eq i64 %59, 0
  br i1 %.not87, label %84, label %74

74:                                               ; preds = %57
  %75 = load i32, ptr %39, align 4
  %76 = lshr i32 %75, 3
  %77 = zext nneg i32 %76 to i64
  %78 = getelementptr inbounds nuw i8, ptr %41, i64 %77
  %79 = xor i32 %76, 3
  %.neg88 = add nuw nsw i32 %79, 1
  %80 = and i32 %.neg88, 7
  %81 = zext nneg i32 %80 to i64
  %82 = getelementptr inbounds nuw i8, ptr %78, i64 %81
  %83 = getelementptr inbounds nuw i8, ptr %82, i64 %59
  tail call void @llvm.memmove.p0.p0.i64(ptr nonnull align 1 %83, ptr nonnull align 1 %82, i64 %67, i1 false)
  br label %84

84:                                               ; preds = %74, %57
  %85 = getelementptr inbounds nuw i8, ptr %41, i64 %66
  %86 = getelementptr inbounds nuw i8, ptr %85, i64 1
  %87 = load i32, ptr %39, align 4
  %88 = lshr i32 %87, 3
  %89 = sub nsw i32 %88, %.075.lcssa
  %90 = sext i32 %89 to i64
  tail call void @llvm.memmove.p0.p0.i64(ptr nonnull align 1 %86, ptr nonnull align 1 %85, i64 %90, i1 false)
  store i8 %1, ptr %85, align 1, !tbaa !15
  %91 = and i32 %87, -8
  %92 = add i32 %91, 8
  %93 = and i32 %87, 7
  %94 = or disjoint i32 %92, %93
  store i32 %94, ptr %39, align 4
  %95 = lshr exact i32 %92, 3
  %96 = zext nneg i32 %95 to i64
  %97 = getelementptr inbounds nuw i8, ptr %41, i64 %96
  %98 = xor i32 %95, 3
  %.neg89 = add nuw nsw i32 %98, 1
  %99 = and i32 %.neg89, 7
  %100 = zext nneg i32 %99 to i64
  %101 = getelementptr inbounds nuw i8, ptr %97, i64 %100
  %102 = getelementptr inbounds nuw i8, ptr %101, i64 %67
  store ptr %36, ptr %102, align 8
  store ptr %36, ptr %2, align 8, !tbaa !11
  store ptr %102, ptr %3, align 8, !tbaa !18
  br label %raxNewNode.exit.thread

raxNewNode.exit.thread:                           ; preds = %9, %44, %84
  %.0 = phi ptr [ null, %44 ], [ %39, %84 ], [ null, %9 ]
  ret ptr %.0
}